target datalayout = "e-m:e-p270:32:32-p271:32:32-p272:64:64-i64:64-i128:128-f80:128-n8:16:32:64-S128"
target triple = "x86_64-unknown-linux-gnu"

%"class.grpc_core::slice_detail::BaseSlice" = type { %struct.grpc_slice }
%struct.grpc_slice = type { ptr, %"union.grpc_slice::grpc_slice_data" }
%"union.grpc_slice::grpc_slice_data" = type { %"struct.grpc_slice::grpc_slice_data::grpc_slice_refcounted", [8 x i8] }
%"struct.grpc_slice::grpc_slice_data::grpc_slice_refcounted" = type { i64, ptr }
%"class.grpc_core::StaticSlice" = type { %"class.grpc_core::slice_detail::BaseSlice" }

@.str.15 = private unnamed_addr constant [5 x i8] c"POST\00", align 1
@.str.16 = private unnamed_addr constant [4 x i8] c"PUT\00", align 1
@.str.17 = private unnamed_addr constant [4 x i8] c"GET\00", align 1
@.str.18 = private unnamed_addr constant [19 x i8] c"<<INVALID METHOD>>\00", align 1

; Function Attrs: mustprogress nounwind uwtable
define linkonce_odr void @_ZN9grpc_core12slice_detail9BaseSliceC2ERK10grpc_slice(ptr noundef nonnull align 8 dereferenceable(32) %this, ptr noundef nonnull align 8 dereferenceable(32) %slice) unnamed_addr #6 comdat align 2 {
entry:
  %this.addr = alloca ptr, align 8
  %slice.addr = alloca ptr, align 8
  store ptr %this, ptr %this.addr, align 8
  store ptr %slice, ptr %slice.addr, align 8
  %this1 = load ptr, ptr %this.addr, align 8
  %slice_ = getelementptr inbounds %"class.grpc_core::slice_detail::BaseSlice", ptr %this1, i32 0, i32 0
  %0 = load ptr, ptr %slice.addr, align 8
  call void @llvm.memcpy.p0.p0.i64(ptr align 8 %slice_, ptr align 8 %0, i64 32, i1 false)
  ret void
}

; Function Attrs: mustprogress nounwind uwtable
define linkonce_odr void @_ZN9grpc_core11StaticSliceC2ERK10grpc_slice(ptr noundef nonnull align 8 dereferenceable(32) %this, ptr noundef nonnull align 8 dereferenceable(32) %slice) unnamed_addr #6 comdat align 2 {
entry:
  %this.addr = alloca ptr, align 8
  %slice.addr = alloca ptr, align 8
  store ptr %this, ptr %this.addr, align 8
  store ptr %slice, ptr %slice.addr, align 8
  %this1 = load ptr, ptr %this.addr, align 8
  %0 = load ptr, ptr %slice.addr, align 8
  call void @_ZN9grpc_core12slice_detail9BaseSliceC2ERK10grpc_slice(ptr noundef nonnull align 8 dereferenceable(32) %this1, ptr noundef nonnull align 8 dereferenceable(32) %0)
  ret void
}

; Function Attrs: mustprogress nounwind uwtable
define linkonce_odr noundef ptr @_ZN19grpc_slice_refcount12NoopRefcountEv() #6 comdat align 2 {
entry:
  ret ptr inttoptr (i64 1 to ptr)
}

; Function Attrs: mustprogress uwtable
define linkonce_odr void @_ZN9grpc_core12slice_detail18StaticConstructorsINS_11StaticSliceEE16FromStaticBufferEPKvm(ptr noalias sret(%"class.grpc_core::StaticSlice") align 8 %agg.result, ptr noundef %s, i64 noundef %len) #4 comdat align 2 {
entry:
  %result.ptr = alloca ptr, align 8
  %s.addr = alloca ptr, align 8
  %len.addr = alloca i64, align 8
  %slice = alloca %struct.grpc_slice, align 8
  store ptr %agg.result, ptr %result.ptr, align 8
  store ptr %s, ptr %s.addr, align 8
  store i64 %len, ptr %len.addr, align 8
  %call = call noundef ptr @_ZN19grpc_slice_refcount12NoopRefcountEv()
  %refcount = getelementptr inbounds %struct.grpc_slice, ptr %slice, i32 0, i32 0
  store ptr %call, ptr %refcount, align 8
  %0 = load ptr, ptr %s.addr, align 8
  %data = getelementptr inbounds %struct.grpc_slice, ptr %slice, i32 0, i32 1
  %bytes = getelementptr inbounds %"struct.grpc_slice::grpc_slice_data::grpc_slice_refcounted", ptr %data, i32 0, i32 1
  store ptr %0, ptr %bytes, align 8
  %1 = load i64, ptr %len.addr, align 8
  %data1 = getelementptr inbounds %struct.grpc_slice, ptr %slice, i32 0, i32 1
  %length = getelementptr inbounds %"struct.grpc_slice::grpc_slice_data::grpc_slice_refcounted", ptr %data1, i32 0, i32 0
  store i64 %1, ptr %length, align 8
  call void @_ZN9grpc_core11StaticSliceC2ERK10grpc_slice(ptr noundef nonnull align 8 dereferenceable(32) %agg.result, ptr noundef nonnull align 8 dereferenceable(32) %slice)
  ret void
}

; Function Attrs: mustprogress uwtable
define linkonce_odr void @_ZN9grpc_core12slice_detail18StaticConstructorsINS_11StaticSliceEE16FromStaticStringEPKc(ptr noalias sret(%"class.grpc_core::StaticSlice") align 8 %agg.result, ptr noundef %s) #4 comdat align 2 {
entry:
  %result.ptr = alloca ptr, align 8
  %s.addr = alloca ptr, align 8
  store ptr %agg.result, ptr %result.ptr, align 8
  store ptr %s, ptr %s.addr, align 8
  %0 = load ptr, ptr %s.addr, align 8
  %1 = load ptr, ptr %s.addr, align 8
  %call = call i64 @strlen(ptr noundef %1) #15
  call void @_ZN9grpc_core12slice_detail18StaticConstructorsINS_11StaticSliceEE16FromStaticBufferEPKvm(ptr sret(%"class.grpc_core::StaticSlice") align 8 %agg.result, ptr noundef %0, i64 noundef %call)
  ret void
}

; Function Attrs: mustprogress uwtable
define void @_ZN9grpc_core18HttpMethodMetadata6EncodeENS0_9ValueTypeE(ptr noalias sret(%"class.grpc_core::StaticSlice") align 8 %agg.result, i8 noundef zeroext %x) #4 align 2 {
entry:
  %result.ptr = alloca ptr, align 8
  %x.addr = alloca i8, align 1
  store ptr %agg.result, ptr %result.ptr, align 8
  store i8 %x, ptr %x.addr, align 1
  %0 = load i8, ptr %x.addr, align 1
  %conv = zext i8 %0 to i32
  switch i32 %conv, label %sw.default [
    i32 0, label %sw.bb
    i32 2, label %sw.bb1
    i32 1, label %sw.bb2
  ]

sw.bb:                                            ; preds = %entry
  call void @_ZN9grpc_core12slice_detail18StaticConstructorsINS_11StaticSliceEE16FromStaticStringEPKc(ptr sret(%"class.grpc_core::StaticSlice") align 8 %agg.result, ptr noundef @.str.15)
  br label %return

sw.bb1:                                           ; preds = %entry
  call void @_ZN9grpc_core12slice_detail18StaticConstructorsINS_11StaticSliceEE16FromStaticStringEPKc(ptr sret(%"class.grpc_core::StaticSlice") align 8 %agg.result, ptr noundef @.str.16)
  br label %return

sw.bb2:                                           ; preds = %entry
  call void @_ZN9grpc_core12slice_detail18StaticConstructorsINS_11StaticSliceEE16FromStaticStringEPKc(ptr sret(%"class.grpc_core::StaticSlice") align 8 %agg.result, ptr noundef @.str.17)
  br label %return

sw.default:                                       ; preds = %entry
  call void @_ZN9grpc_core12slice_detail18StaticConstructorsINS_11StaticSliceEE16FromStaticStringEPKc(ptr sret(%"class.grpc_core::StaticSlice") align 8 %agg.result, ptr noundef @.str.18)
  br label %return

return:                                           ; preds = %sw.default, %sw.bb2, %sw.bb1, %sw.bb
  ret void
}