; Function Attrs: mustprogress nofree norecurse nosync nounwind willreturn memory(argmem: write) uwtable
define void @_ZN9grpc_core18HttpMethodMetadata6EncodeENS0_9ValueTypeE(ptr noalias nocapture writeonly sret(%"class.grpc_core::StaticSlice") align 8 %agg.result, i8 noundef zeroext %x) local_unnamed_addr #10 align 2 {
entry:
  store ptr inttoptr (i64 1 to ptr), ptr %agg.result, align 8
  %0 = icmp ult i8 %x, 3
  br i1 %0, label %switch.lookup, label %return

switch.lookup:                                    ; preds = %entry
  %1 = zext nneg i8 %x to i64
  %switch.gep = getelementptr inbounds [3 x i64], ptr @switch.table._ZN9grpc_core18HttpMethodMetadata6EncodeENS0_9ValueTypeE, i64 0, i64 %1
  %switch.load = load i64, ptr %switch.gep, align 8
  %2 = zext nneg i8 %x to i64
  %switch.gep10 = getelementptr inbounds [3 x ptr], ptr @switch.table._ZN9grpc_core18HttpMethodMetadata12DisplayValueENS0_9ValueTypeE, i64 0, i64 %2
  %switch.load11 = load ptr, ptr %switch.gep10, align 8
  br label %return

return:                                           ; preds = %entry, %switch.lookup
  %.sink = phi i64 [ %switch.load, %switch.lookup ], [ 18, %entry ]
  %.str.18.sink = phi ptr [ %switch.load11, %switch.lookup ], [ @.str.18, %entry ]
  %slice.sroa.3.0.agg.result.sroa_idx.i.i9 = getelementptr inbounds i8, ptr %agg.result, i64 16
  %slice.sroa.2.0.agg.result.sroa_idx.i.i8 = getelementptr inbounds i8, ptr %agg.result, i64 8
  store i64 %.sink, ptr %slice.sroa.2.0.agg.result.sroa_idx.i.i8, align 8
  store ptr %.str.18.sink, ptr %slice.sroa.3.0.agg.result.sroa_idx.i.i9, align 8
  ret void
}